; Function Attrs: nounwind uwtable
define hidden zeroext i1 @Wayland_SetWindowMouseGrab(ptr noundef readonly captures(none) %0, ptr noundef readonly captures(none) %1, i1 noundef zeroext %2) local_unnamed_addr #0 {
  %4 = getelementptr inbounds nuw i8, ptr %0, i64 1656
  %5 = load ptr, ptr %4, align 8
  %6 = getelementptr inbounds nuw i8, ptr %5, i64 80
  %7 = load ptr, ptr %6, align 8
  %.not = icmp eq ptr %7, null
  br i1 %.not, label %8, label %10

8:                                                ; preds = %3
  %9 = tail call zeroext i1 (ptr, ...) @SDL_SetError_REAL(ptr noundef nonnull @.str.6) #15
  br label %13

10:                                               ; preds = %3
  %11 = getelementptr inbounds nuw i8, ptr %1, i64 392
  %12 = load ptr, ptr %11, align 8
  tail call void @Wayland_DisplayUpdatePointerGrabs(ptr noundef nonnull %5, ptr noundef %12) #15
  br label %13

13:                                               ; preds = %10, %8
  %.0 = phi i1 [ true, %10 ], [ %9, %8 ]
  ret i1 %.0
}